; Function Attrs: mustprogress nofree norecurse nosync nounwind willreturn memory(read, inaccessiblemem: none) uwtable
define hidden noundef zeroext i1 @_ZN3smt13model_checker17has_new_instancesEv(ptr noundef nonnull readonly align 8 captures(none) dereferenceable(184) %0) local_unnamed_addr #13 align 2 {
  %2 = getelementptr inbounds nuw i8, ptr %0, i64 136
  %3 = load ptr, ptr %2, align 8, !tbaa !68
  %4 = icmp eq ptr %3, null
  br i1 %4, label %_ZNK6vectorIN3smt13model_checker8instanceELb0EjE5emptyEv.exit, label %5

5:                                                ; preds = %1
  %6 = getelementptr inbounds i8, ptr %3, i64 -4
  %7 = load i32, ptr %6, align 4, !tbaa !49
  %8 = icmp ne i32 %7, 0
  br label %_ZNK6vectorIN3smt13model_checker8instanceELb0EjE5emptyEv.exit

_ZNK6vectorIN3smt13model_checker8instanceELb0EjE5emptyEv.exit: ; preds = %1, %5
  %9 = phi i1 [ false, %1 ], [ %8, %5 ]
  ret i1 %9
}